target datalayout = "e-m:e-p270:32:32-p271:32:32-p272:64:64-i64:64-i128:128-f80:128-n8:16:32:64-S128"
target triple = "x86_64-pc-linux-gnu"

%"class.base::BasicStringPiece.0" = type { ptr, i64 }

; Function Attrs: inlinehint mustprogress nounwind uwtable
define internal noundef i64 @_ZN4base12_GLOBAL__N_112NonASCIIMaskILm8EtE5valueEv() #7 align 2 {
  ret i64 -35747867511423104
}

; Function Attrs: inlinehint mustprogress nounwind uwtable
define internal noundef ptr @_ZN4base12_GLOBAL__N_118AlignToMachineWordIKtEEPT_S4_(ptr noundef %0) #7 {
  %2 = alloca ptr, align 8
  store ptr %0, ptr %2, align 8, !tbaa !24
  %3 = load ptr, ptr %2, align 8, !tbaa !24
  %4 = ptrtoint ptr %3 to i64
  %5 = and i64 %4, -8
  %6 = inttoptr i64 %5 to ptr
  ret ptr %6
}

; Function Attrs: inlinehint mustprogress nounwind uwtable
define internal noundef zeroext i1 @_ZN4base12_GLOBAL__N_122IsAlignedToMachineWordEPKv(ptr noundef %0) #7 {
  %2 = alloca ptr, align 8
  store ptr %0, ptr %2, align 8, !tbaa !131
  %3 = load ptr, ptr %2, align 8, !tbaa !131
  %4 = ptrtoint ptr %3 to i64
  %5 = and i64 %4, 7
  %6 = icmp ne i64 %5, 0
  %7 = xor i1 %6, true
  ret i1 %7
}

; Function Attrs: inlinehint mustprogress uwtable
define linkonce_odr noundef zeroext i1 @_ZN4base15DoIsStringASCIIItEEbPKT_m(ptr noundef %0, i64 noundef %1) #8 comdat {
  %3 = alloca ptr, align 8
  %4 = alloca i64, align 8
  %5 = alloca i64, align 8
  %6 = alloca ptr, align 8
  %7 = alloca ptr, align 8
  %8 = alloca i64, align 8
  %9 = alloca i64, align 8
  store ptr %0, ptr %3, align 8, !tbaa !24
  store i64 %1, ptr %4, align 8, !tbaa !20
  call void @llvm.lifetime.start.p0(i64 8, ptr %5) #17
  store i64 0, ptr %5, align 8, !tbaa !20
  call void @llvm.lifetime.start.p0(i64 8, ptr %6) #17
  %10 = load ptr, ptr %3, align 8, !tbaa !24
  %11 = load i64, ptr %4, align 8, !tbaa !20
  %12 = getelementptr inbounds nuw i16, ptr %10, i64 %11
  store ptr %12, ptr %6, align 8, !tbaa !24
  br label %13

13:                                               ; preds = %22, %2
  %14 = load ptr, ptr %3, align 8, !tbaa !24
  %15 = call noundef zeroext i1 @_ZN4base12_GLOBAL__N_122IsAlignedToMachineWordEPKv(ptr noundef %14)
  br i1 %15, label %20, label %16

16:                                               ; preds = %13
  %17 = load ptr, ptr %3, align 8, !tbaa !24
  %18 = load ptr, ptr %6, align 8, !tbaa !24
  %19 = icmp ne ptr %17, %18
  br label %20

20:                                               ; preds = %16, %13
  %21 = phi i1 [ false, %13 ], [ %19, %16 ]
  br i1 %21, label %22, label %30

22:                                               ; preds = %20
  %23 = load ptr, ptr %3, align 8, !tbaa !24
  %24 = load i16, ptr %23, align 2, !tbaa !31
  %25 = zext i16 %24 to i64
  %26 = load i64, ptr %5, align 8, !tbaa !20
  %27 = or i64 %26, %25
  store i64 %27, ptr %5, align 8, !tbaa !20
  %28 = load ptr, ptr %3, align 8, !tbaa !24
  %29 = getelementptr inbounds nuw i16, ptr %28, i32 1
  store ptr %29, ptr %3, align 8, !tbaa !24
  br label %13, !llvm.loop !69

30:                                               ; preds = %20
  call void @llvm.lifetime.start.p0(i64 8, ptr %7) #17
  %31 = load ptr, ptr %6, align 8, !tbaa !24
  %32 = call noundef ptr @_ZN4base12_GLOBAL__N_118AlignToMachineWordIKtEEPT_S4_(ptr noundef %31)
  store ptr %32, ptr %7, align 8, !tbaa !24
  call void @llvm.lifetime.start.p0(i64 8, ptr %8) #17
  store i64 4, ptr %8, align 8, !tbaa !20
  br label %33

33:                                               ; preds = %37, %30
  %34 = load ptr, ptr %3, align 8, !tbaa !24
  %35 = load ptr, ptr %7, align 8, !tbaa !24
  %36 = icmp ult ptr %34, %35
  br i1 %36, label %37, label %44

37:                                               ; preds = %33
  %38 = load ptr, ptr %3, align 8, !tbaa !24
  %39 = load i64, ptr %38, align 8, !tbaa !20
  %40 = load i64, ptr %5, align 8, !tbaa !20
  %41 = or i64 %40, %39
  store i64 %41, ptr %5, align 8, !tbaa !20
  %42 = load ptr, ptr %3, align 8, !tbaa !24
  %43 = getelementptr inbounds nuw i16, ptr %42, i64 4
  store ptr %43, ptr %3, align 8, !tbaa !24
  br label %33, !llvm.loop !70

44:                                               ; preds = %33
  br label %45

45:                                               ; preds = %49, %44
  %46 = load ptr, ptr %3, align 8, !tbaa !24
  %47 = load ptr, ptr %6, align 8, !tbaa !24
  %48 = icmp ne ptr %46, %47
  br i1 %48, label %49, label %57

49:                                               ; preds = %45
  %50 = load ptr, ptr %3, align 8, !tbaa !24
  %51 = load i16, ptr %50, align 2, !tbaa !31
  %52 = zext i16 %51 to i64
  %53 = load i64, ptr %5, align 8, !tbaa !20
  %54 = or i64 %53, %52
  store i64 %54, ptr %5, align 8, !tbaa !20
  %55 = load ptr, ptr %3, align 8, !tbaa !24
  %56 = getelementptr inbounds nuw i16, ptr %55, i32 1
  store ptr %56, ptr %3, align 8, !tbaa !24
  br label %45, !llvm.loop !71

57:                                               ; preds = %45
  call void @llvm.lifetime.start.p0(i64 8, ptr %9) #17
  %58 = call noundef i64 @_ZN4base12_GLOBAL__N_112NonASCIIMaskILm8EtE5valueEv()
  store i64 %58, ptr %9, align 8, !tbaa !20
  %59 = load i64, ptr %5, align 8, !tbaa !20
  %60 = load i64, ptr %9, align 8, !tbaa !20
  %61 = and i64 %59, %60
  %62 = icmp ne i64 %61, 0
  %63 = xor i1 %62, true
  call void @llvm.lifetime.end.p0(i64 8, ptr %9) #17
  call void @llvm.lifetime.end.p0(i64 8, ptr %8) #17
  call void @llvm.lifetime.end.p0(i64 8, ptr %7) #17
  call void @llvm.lifetime.end.p0(i64 8, ptr %6) #17
  call void @llvm.lifetime.end.p0(i64 8, ptr %5) #17
  ret i1 %63
}

; Function Attrs: mustprogress nounwind uwtable
define available_externally noundef i64 @_ZNK4base16BasicStringPieceINSt7__cxx1112basic_stringItNS_20string16_char_traitsESaItEEEE6lengthEv(ptr noundef nonnull align 8 dereferenceable(16) %0) #0 align 2 {
  %2 = alloca ptr, align 8
  store ptr %0, ptr %2, align 8, !tbaa !38
  %3 = load ptr, ptr %2, align 8
  %4 = getelementptr inbounds nuw %"class.base::BasicStringPiece.0", ptr %3, i32 0, i32 1
  %5 = load i64, ptr %4, align 8, !tbaa !40
  ret i64 %5
}

; Function Attrs: mustprogress nounwind uwtable
define available_externally noundef ptr @_ZNK4base16BasicStringPieceINSt7__cxx1112basic_stringItNS_20string16_char_traitsESaItEEEE4dataEv(ptr noundef nonnull align 8 dereferenceable(16) %0) #0 align 2 {
  %2 = alloca ptr, align 8
  store ptr %0, ptr %2, align 8, !tbaa !38
  %3 = load ptr, ptr %2, align 8
  %4 = getelementptr inbounds nuw %"class.base::BasicStringPiece.0", ptr %3, i32 0, i32 0
  %5 = load ptr, ptr %4, align 8, !tbaa !48
  ret ptr %5
}

; Function Attrs: mustprogress uwtable
define noundef zeroext i1 @_ZN4base13IsStringASCIIERKNS_16BasicStringPieceINSt7__cxx1112basic_stringItNS_20string16_char_traitsESaItEEEEE(ptr noundef nonnull align 8 dereferenceable(16) %0) #3 {
  %2 = alloca ptr, align 8
  store ptr %0, ptr %2, align 8, !tbaa !38
  %3 = load ptr, ptr %2, align 8, !tbaa !38
  %4 = call noundef ptr @_ZNK4base16BasicStringPieceINSt7__cxx1112basic_stringItNS_20string16_char_traitsESaItEEEE4dataEv(ptr noundef nonnull align 8 dereferenceable(16) %3)
  %5 = load ptr, ptr %2, align 8, !tbaa !38
  %6 = call noundef i64 @_ZNK4base16BasicStringPieceINSt7__cxx1112basic_stringItNS_20string16_char_traitsESaItEEEE6lengthEv(ptr noundef nonnull align 8 dereferenceable(16) %5)
  %7 = call noundef zeroext i1 @_ZN4base15DoIsStringASCIIItEEbPKT_m(ptr noundef %4, i64 noundef %6)
  ret i1 %7
}